#include <math.h>
#include <stdio.h>
#include <stdlib.h>
#include <string.h>

int main(void)
{
	int n;scanf("%d",&n);
	for(;n!=1;)
	{
		if(n%2)
		{
			printf("%d*3+1=",n);
			n=n*3+1;
			printf("%d\n",n);
		}
		else{
			printf("%d/2=",n);
			n/=2;
			printf("%d\n",n);
		}
	}
	printf("End");
	return 0;
}